target datalayout = "e-m:e-p270:32:32-p271:32:32-p272:64:64-i64:64-i128:128-f80:128-n8:16:32:64-S128"
target triple = "x86_64-pc-linux-gnu"

%struct.ssl_st = type { i32, ptr, ptr, ptr, %struct.CRYPTO_REF_COUNT, ptr, %struct.crypto_ex_data_st }
%struct.CRYPTO_REF_COUNT = type { i32 }
%struct.crypto_ex_data_st = type { ptr, ptr }
%struct.ssl_connection_st = type { %struct.ssl_st, ptr, i32, ptr, ptr, ptr, i32, ptr, i32, i32, i32, i32, %struct.OSSL_TIME, %struct.OSSL_TIME, %struct.ossl_statem_st, i32, ptr, ptr, i64, i64, i64, %struct.ossl_quic_tls_callbacks_st, ptr, ptr, %struct.anon, ptr, ptr, ptr, i32, ptr, %struct.ssl_dane_st, ptr, ptr, ptr, ptr, i32, [64 x i8], [64 x i8], [64 x i8], [64 x i8], [64 x i8], [64 x i8], [64 x i8], [64 x i8], [64 x i8], [64 x i8], [64 x i8], [64 x i8], ptr, [64 x i8], i64, i32, i64, [32 x i8], ptr, ptr, ptr, i64, ptr, [32 x i8], i64, i32, ptr, ptr, i32, i32, ptr, ptr, ptr, ptr, ptr, i64, ptr, ptr, i64, i32, i32, i32, i64, i32, i32, i64, i64, i64, %struct.anon.1, ptr, i32, ptr, ptr, ptr, i32, ptr, ptr, ptr, i32, i32, i32, i32, ptr, i64, i32, ptr, %struct.srp_ctx_st, ptr, %struct.record_layer_st, ptr, ptr, ptr, ptr, i64, i32, i32, i32, i64, i64, i64, ptr, ptr, ptr, ptr, ptr, i64, ptr, i64, ptr, i64 }
%struct.OSSL_TIME = type { i64 }
%struct.ossl_statem_st = type { i32, i32, i32, i32, i32, i32, i32, i32, i32, i32, i32, i32, i32, ptr, ptr, ptr, i8 }
%struct.ossl_quic_tls_callbacks_st = type { ptr, ptr, ptr, ptr, ptr, ptr }
%struct.anon = type { i64, [32 x i8], [32 x i8], ptr, ptr, i32, i32, i32, i32, [2 x i8], i32, i32, i32, i32, %struct.anon.0, [64 x i8], i64, [64 x i8], i64, i32, i32, ptr, i64, ptr, i64, i32, i8, i8, i16, ptr, i16 }
%struct.anon.0 = type { [128 x i8], i64, [128 x i8], i64, i64, i32, ptr, ptr, [4 x ptr], [4 x i16], i64, i32, ptr, i64, ptr, i64, ptr, ptr, ptr, i32, i64, ptr, i32, ptr, i64, ptr, i64, ptr, i64, ptr, ptr, ptr, ptr, i64, i64, ptr, ptr, i32, i32, i32, i32 }
%struct.ssl_dane_st = type { ptr, ptr, ptr, ptr, ptr, i32, i32, i32, i64 }
%struct.anon.1 = type { [29 x i8], ptr, ptr, ptr, i32, ptr, i16, i32, %struct.anon.2, i32, i32, i64, ptr, i64, ptr, i64, ptr, i64, ptr, i64, ptr, i64, ptr, ptr, ptr, ptr, ptr, ptr, ptr, i64, ptr, i64, i32, i32, i32, i32, ptr, i64, i32, i8, i32, [4 x i32], i32, i8, i8, i8, i8 }
%struct.anon.2 = type { ptr, ptr, ptr, i64 }
%struct.srp_ctx_st = type { ptr, ptr, ptr, ptr, ptr, ptr, ptr, ptr, ptr, ptr, ptr, ptr, ptr, ptr, i32, i64 }
%struct.record_layer_st = type { ptr, ptr, ptr, ptr, ptr, ptr, ptr, ptr, i64, i32, i64, [4 x i8], i64, i64, i8, ptr, i32, ptr, ptr, ptr, i64, i64, i64, i64, [32 x %struct.tls_record_st] }
%struct.tls_record_st = type { ptr, i32, i8, ptr, ptr, i64, i64, i16, [8 x i8] }
%struct.ssl_method_st = type { i32, i32, i64, ptr, ptr, ptr, ptr, ptr, ptr, ptr, ptr, ptr, ptr, ptr, ptr, ptr, ptr, ptr, ptr, ptr, ptr, ptr, ptr, ptr, ptr, ptr, ptr, ptr, ptr, ptr, ptr, ptr }
%struct.ssl3_enc_method = type { ptr, ptr, ptr, ptr, ptr, i64, ptr, i64, ptr, ptr, i32, ptr, ptr, ptr }

; Function Attrs: nounwind uwtable
define i32 @ssl3_take_mac(ptr noundef %0) #0 {
  %2 = alloca i32, align 4
  %3 = alloca ptr, align 8
  %4 = alloca ptr, align 8
  %5 = alloca i64, align 8
  %6 = alloca ptr, align 8
  %7 = alloca i32, align 4
  store ptr %0, ptr %3, align 8, !tbaa !18
  call void @llvm.lifetime.start.p0(i64 8, ptr %4) #9
  call void @llvm.lifetime.start.p0(i64 8, ptr %5) #9
  call void @llvm.lifetime.start.p0(i64 8, ptr %6) #9
  %8 = load ptr, ptr %3, align 8, !tbaa !18
  %9 = getelementptr inbounds nuw %struct.ssl_connection_st, ptr %8, i32 0, i32 0
  store ptr %9, ptr %6, align 8, !tbaa !3
  %10 = load ptr, ptr %3, align 8, !tbaa !18
  %11 = getelementptr inbounds nuw %struct.ssl_connection_st, ptr %10, i32 0, i32 8
  %12 = load i32, ptr %11, align 8, !tbaa !102
  %13 = icmp ne i32 %12, 0
  br i1 %13, label %29, label %14

14:                                               ; preds = %1
  %15 = load ptr, ptr %6, align 8, !tbaa !3
  %16 = getelementptr inbounds nuw %struct.ssl_st, ptr %15, i32 0, i32 3
  %17 = load ptr, ptr %16, align 8, !tbaa !120
  %18 = getelementptr inbounds nuw %struct.ssl_method_st, ptr %17, i32 0, i32 28
  %19 = load ptr, ptr %18, align 8, !tbaa !87
  %20 = getelementptr inbounds nuw %struct.ssl3_enc_method, ptr %19, i32 0, i32 6
  %21 = load ptr, ptr %20, align 8, !tbaa !173
  store ptr %21, ptr %4, align 8, !tbaa !82
  %22 = load ptr, ptr %6, align 8, !tbaa !3
  %23 = getelementptr inbounds nuw %struct.ssl_st, ptr %22, i32 0, i32 3
  %24 = load ptr, ptr %23, align 8, !tbaa !120
  %25 = getelementptr inbounds nuw %struct.ssl_method_st, ptr %24, i32 0, i32 28
  %26 = load ptr, ptr %25, align 8, !tbaa !87
  %27 = getelementptr inbounds nuw %struct.ssl3_enc_method, ptr %26, i32 0, i32 7
  %28 = load i64, ptr %27, align 8, !tbaa !174
  store i64 %28, ptr %5, align 8, !tbaa !76
  br label %44

29:                                               ; preds = %1
  %30 = load ptr, ptr %6, align 8, !tbaa !3
  %31 = getelementptr inbounds nuw %struct.ssl_st, ptr %30, i32 0, i32 3
  %32 = load ptr, ptr %31, align 8, !tbaa !120
  %33 = getelementptr inbounds nuw %struct.ssl_method_st, ptr %32, i32 0, i32 28
  %34 = load ptr, ptr %33, align 8, !tbaa !87
  %35 = getelementptr inbounds nuw %struct.ssl3_enc_method, ptr %34, i32 0, i32 4
  %36 = load ptr, ptr %35, align 8, !tbaa !175
  store ptr %36, ptr %4, align 8, !tbaa !82
  %37 = load ptr, ptr %6, align 8, !tbaa !3
  %38 = getelementptr inbounds nuw %struct.ssl_st, ptr %37, i32 0, i32 3
  %39 = load ptr, ptr %38, align 8, !tbaa !120
  %40 = getelementptr inbounds nuw %struct.ssl_method_st, ptr %39, i32 0, i32 28
  %41 = load ptr, ptr %40, align 8, !tbaa !87
  %42 = getelementptr inbounds nuw %struct.ssl3_enc_method, ptr %41, i32 0, i32 5
  %43 = load i64, ptr %42, align 8, !tbaa !176
  store i64 %43, ptr %5, align 8, !tbaa !76
  br label %44

44:                                               ; preds = %29, %14
  %45 = load ptr, ptr %6, align 8, !tbaa !3
  %46 = getelementptr inbounds nuw %struct.ssl_st, ptr %45, i32 0, i32 3
  %47 = load ptr, ptr %46, align 8, !tbaa !120
  %48 = getelementptr inbounds nuw %struct.ssl_method_st, ptr %47, i32 0, i32 28
  %49 = load ptr, ptr %48, align 8, !tbaa !87
  %50 = getelementptr inbounds nuw %struct.ssl3_enc_method, ptr %49, i32 0, i32 3
  %51 = load ptr, ptr %50, align 8, !tbaa !177
  %52 = load ptr, ptr %3, align 8, !tbaa !18
  %53 = load ptr, ptr %4, align 8, !tbaa !82
  %54 = load i64, ptr %5, align 8, !tbaa !76
  %55 = load ptr, ptr %3, align 8, !tbaa !18
  %56 = getelementptr inbounds nuw %struct.ssl_connection_st, ptr %55, i32 0, i32 24
  %57 = getelementptr inbounds nuw %struct.anon, ptr %56, i32 0, i32 14
  %58 = getelementptr inbounds nuw %struct.anon.0, ptr %57, i32 0, i32 2
  %59 = getelementptr inbounds [128 x i8], ptr %58, i64 0, i64 0
  %60 = call i64 %51(ptr noundef %52, ptr noundef %53, i64 noundef %54, ptr noundef %59)
  %61 = load ptr, ptr %3, align 8, !tbaa !18
  %62 = getelementptr inbounds nuw %struct.ssl_connection_st, ptr %61, i32 0, i32 24
  %63 = getelementptr inbounds nuw %struct.anon, ptr %62, i32 0, i32 14
  %64 = getelementptr inbounds nuw %struct.anon.0, ptr %63, i32 0, i32 3
  store i64 %60, ptr %64, align 8, !tbaa !113
  %65 = load ptr, ptr %3, align 8, !tbaa !18
  %66 = getelementptr inbounds nuw %struct.ssl_connection_st, ptr %65, i32 0, i32 24
  %67 = getelementptr inbounds nuw %struct.anon, ptr %66, i32 0, i32 14
  %68 = getelementptr inbounds nuw %struct.anon.0, ptr %67, i32 0, i32 3
  %69 = load i64, ptr %68, align 8, !tbaa !113
  %70 = icmp eq i64 %69, 0
  br i1 %70, label %71, label %72

71:                                               ; preds = %44
  store i32 0, ptr %2, align 4
  store i32 1, ptr %7, align 4
  br label %73

72:                                               ; preds = %44
  store i32 1, ptr %2, align 4
  store i32 1, ptr %7, align 4
  br label %73

73:                                               ; preds = %72, %71
  call void @llvm.lifetime.end.p0(i64 8, ptr %6) #9
  call void @llvm.lifetime.end.p0(i64 8, ptr %5) #9
  call void @llvm.lifetime.end.p0(i64 8, ptr %4) #9
  %74 = load i32, ptr %2, align 4
  ret i32 %74
}