; Function Attrs: nounwind uwtable
define range(i32 0, 2) i32 @ssl3_take_mac(ptr noundef %0) local_unnamed_addr #0 {
  %2 = getelementptr inbounds nuw i8, ptr %0, i64 120
  %3 = load i32, ptr %2, align 8, !tbaa !100
  %.not = icmp eq i32 %3, 0
  %4 = getelementptr inbounds nuw i8, ptr %0, i64 24
  %5 = load ptr, ptr %4, align 8, !tbaa !93
  %6 = getelementptr inbounds nuw i8, ptr %5, i64 216
  %7 = load ptr, ptr %6, align 8, !tbaa !82
  %.16 = select i1 %.not, i64 48, i64 32
  %.17 = select i1 %.not, i64 56, i64 40
  %8 = getelementptr inbounds nuw i8, ptr %7, i64 %.16
  %9 = getelementptr inbounds nuw i8, ptr %7, i64 %.17
  %.013 = load i64, ptr %9, align 8, !tbaa !72
  %.014 = load ptr, ptr %8, align 8, !tbaa !78
  %10 = getelementptr inbounds nuw i8, ptr %7, i64 24
  %11 = load ptr, ptr %10, align 8, !tbaa !155
  %12 = getelementptr inbounds nuw i8, ptr %0, i64 616
  %13 = tail call i64 %11(ptr noundef nonnull %0, ptr noundef %.014, i64 noundef %.013, ptr noundef nonnull %12) #11
  %14 = getelementptr inbounds nuw i8, ptr %0, i64 744
  store i64 %13, ptr %14, align 8, !tbaa !104
  %15 = icmp ne i64 %13, 0
  %. = zext i1 %15 to i32
  ret i32 %.
}